; Function Attrs: nofree norecurse nosync nounwind memory(read, argmem: readwrite, inaccessiblemem: none) uwtable
define internal void @planar_rgb10le_to_uv(ptr noundef writeonly captures(none) %0, ptr noundef writeonly captures(none) %1, ptr noundef readonly captures(none) %2, i32 noundef %3, ptr noundef readonly captures(none) %4, ptr readnone captures(none) %5) #2 {
  %7 = getelementptr inbounds nuw i8, ptr %4, i64 12
  %8 = load i32, ptr %7, align 4, !tbaa !42
  %9 = getelementptr inbounds nuw i8, ptr %4, i64 16
  %10 = load i32, ptr %9, align 4, !tbaa !42
  %11 = getelementptr inbounds nuw i8, ptr %4, i64 20
  %12 = load i32, ptr %11, align 4, !tbaa !42
  %13 = getelementptr inbounds nuw i8, ptr %4, i64 24
  %14 = load i32, ptr %13, align 4, !tbaa !42
  %15 = getelementptr inbounds nuw i8, ptr %4, i64 28
  %16 = load i32, ptr %15, align 4, !tbaa !42
  %17 = getelementptr inbounds nuw i8, ptr %4, i64 32
  %18 = load i32, ptr %17, align 4, !tbaa !42
  %19 = icmp sgt i32 %3, 0
  br i1 %19, label %.lr.ph, label %planar_rgb16_to_uv.exit

.lr.ph:                                           ; preds = %6
  %20 = load ptr, ptr %2, align 8, !tbaa !46
  %21 = getelementptr inbounds nuw i8, ptr %2, i64 8
  %22 = load ptr, ptr %21, align 8, !tbaa !46
  %23 = getelementptr inbounds nuw i8, ptr %2, i64 16
  %24 = load ptr, ptr %23, align 8, !tbaa !46
  %wide.trip.count = zext nneg i32 %3 to i64
  br label %25

25:                                               ; preds = %.lr.ph, %25
  %indvars.iv = phi i64 [ 0, %.lr.ph ], [ %indvars.iv.next, %25 ]
  %26 = getelementptr inbounds nuw i16, ptr %20, i64 %indvars.iv
  %27 = load i16, ptr %26, align 1, !tbaa !34
  %28 = zext i16 %27 to i32
  %29 = getelementptr inbounds nuw i16, ptr %22, i64 %indvars.iv
  %30 = load i16, ptr %29, align 1, !tbaa !34
  %31 = zext i16 %30 to i32
  %32 = getelementptr inbounds nuw i16, ptr %24, i64 %indvars.iv
  %33 = load i16, ptr %32, align 1, !tbaa !34
  %34 = zext i16 %33 to i32
  %35 = mul nsw i32 %8, %34
  %36 = mul nsw i32 %10, %28
  %37 = mul nsw i32 %12, %31
  %38 = add i32 %36, 16778240
  %39 = add i32 %38, %37
  %40 = add i32 %39, %35
  %41 = lshr i32 %40, 11
  %42 = trunc i32 %41 to i16
  %43 = getelementptr inbounds nuw i16, ptr %0, i64 %indvars.iv
  store i16 %42, ptr %43, align 2, !tbaa !43
  %44 = mul nsw i32 %14, %34
  %45 = mul nsw i32 %16, %28
  %46 = mul nsw i32 %18, %31
  %47 = add i32 %45, 16778240
  %48 = add i32 %47, %46
  %49 = add i32 %48, %44
  %50 = lshr i32 %49, 11
  %51 = trunc i32 %50 to i16
  %52 = getelementptr inbounds nuw i16, ptr %1, i64 %indvars.iv
  store i16 %51, ptr %52, align 2, !tbaa !43
  %indvars.iv.next = add nuw nsw i64 %indvars.iv, 1
  %exitcond.not = icmp eq i64 %indvars.iv.next, %wide.trip.count
  br i1 %exitcond.not, label %planar_rgb16_to_uv.exit, label %25, !llvm.loop !47

planar_rgb16_to_uv.exit:                          ; preds = %25, %6
  ret void
}